; Function Attrs: mustprogress uwtable
define hidden void @_ZN3sat4drat3addEv(ptr noundef nonnull align 8 dereferenceable(664) %this) local_unnamed_addr #3 align 2 {
entry:
  %buffer.i = alloca [10000 x i8], align 16
  %agg.tmp12 = alloca %"class.sat::status", align 8
  %m_num_add = getelementptr inbounds i8, ptr %this, i64 656
  %0 = load i32, ptr %m_num_add, align 8
  %inc = add i32 %0, 1
  store i32 %inc, ptr %m_num_add, align 8
  %m_out = getelementptr inbounds i8, ptr %this, i64 592
  %1 = load ptr, ptr %m_out, align 8
  %tobool.not = icmp eq ptr %1, null
  br i1 %tobool.not, label %if.end, label %if.then

if.then:                                          ; preds = %entry
  %call = tail call noundef nonnull align 8 dereferenceable(8) ptr @_ZStlsISt11char_traitsIcEERSt13basic_ostreamIcT_ES5_PKc(ptr noundef nonnull align 8 dereferenceable(8) %1, ptr noundef nonnull @.str.16)
  br label %if.end

if.end:                                           ; preds = %if.then, %entry
  %m_bout = getelementptr inbounds i8, ptr %this, i64 600
  %2 = load ptr, ptr %m_bout, align 8
  %tobool3.not = icmp eq ptr %2, null
  br i1 %tobool3.not, label %if.end5, label %_ZN3sat4drat5bdumpEjPKNS_7literalENS_6statusE.exit

_ZN3sat4drat5bdumpEjPKNS_7literalENS_6statusE.exit: ; preds = %if.end
  call void @llvm.lifetime.start.p0(i64 10000, ptr nonnull %buffer.i)
  store i8 97, ptr %buffer.i, align 16
  %arrayidx27.i = getelementptr inbounds i8, ptr %buffer.i, i64 1
  store i8 0, ptr %arrayidx27.i, align 1
  %call31.i = call noundef nonnull align 8 dereferenceable(8) ptr @_ZNSo5writeEPKcl(ptr noundef nonnull align 8 dereferenceable(8) %2, ptr noundef nonnull %buffer.i, i64 noundef 2)
  call void @llvm.lifetime.end.p0(i64 10000, ptr nonnull %buffer.i)
  br label %if.end5

if.end5:                                          ; preds = %_ZN3sat4drat5bdumpEjPKNS_7literalENS_6statusE.exit, %if.end
  %m_check_unsat = getelementptr inbounds i8, ptr %this, i64 641
  %3 = load i8, ptr %m_check_unsat, align 1
  %4 = and i8 %3, 1
  %tobool6.not = icmp eq i8 %4, 0
  br i1 %tobool6.not, label %if.end8, label %if.then7

if.then7:                                         ; preds = %if.end5
  call void @_ZN3sat4drat6verifyEjPKNS_7literalE(ptr noundef nonnull align 8 dereferenceable(664) %this, i32 noundef 0, ptr noundef null)
  br label %if.end8

if.end8:                                          ; preds = %if.then7, %if.end5
  %5 = load ptr, ptr %this, align 8
  %tobool9.not = icmp eq ptr %5, null
  br i1 %tobool9.not, label %if.end13, label %if.then10

if.then10:                                        ; preds = %if.end8
  store i32 2, ptr %agg.tmp12, align 8, !alias.scope !40
  %m_orig.i.i2 = getelementptr inbounds i8, ptr %agg.tmp12, i64 4
  store i32 -1, ptr %m_orig.i.i2, align 4, !alias.scope !40
  %m_hint.i.i3 = getelementptr inbounds i8, ptr %agg.tmp12, i64 8
  store ptr null, ptr %m_hint.i.i3, align 8, !alias.scope !40
  %vtable = load ptr, ptr %5, align 8
  %vfn = getelementptr inbounds i8, ptr %vtable, i64 16
  %6 = load ptr, ptr %vfn, align 8
  call void %6(ptr noundef nonnull align 8 dereferenceable(8) %5, i32 noundef 0, ptr noundef null, ptr noundef nonnull %agg.tmp12)
  br label %if.end13

if.end13:                                         ; preds = %if.then10, %if.end8
  ret void
}